target datalayout = "e-m:e-p270:32:32-p271:32:32-p272:64:64-i64:64-i128:128-f80:128-n8:16:32:64-S128"
target triple = "x86_64-pc-linux-gnu"

%struct.jpeg_component_info = type { i32, i32, i32, i32, i32, i32, i32, i32, i32, i32, i32, i32, i32, i32, i32, i32, i32, i32, i32, ptr, ptr }

@simd_support = internal thread_local global i32 -1, align 4

; Function Attrs: nounwind uwtable
define void @jsimd_idct_islow(ptr noundef %0, ptr noundef %1, ptr noundef %2, ptr noundef %3, i32 noundef %4) #0 {
  %6 = alloca ptr, align 8
  %7 = alloca ptr, align 8
  %8 = alloca ptr, align 8
  %9 = alloca ptr, align 8
  %10 = alloca i32, align 4
  store ptr %0, ptr %6, align 8, !tbaa !33
  store ptr %1, ptr %7, align 8, !tbaa !31
  store ptr %2, ptr %8, align 8, !tbaa !59
  store ptr %3, ptr %9, align 8, !tbaa !10
  store i32 %4, ptr %10, align 4, !tbaa !3
  %11 = call align 4 ptr @llvm.threadlocal.address.p0(ptr align 4 @simd_support)
  %12 = load i32, ptr %11, align 4, !tbaa !3
  %13 = icmp eq i32 %12, -1
  br i1 %13, label %14, label %15

14:                                               ; preds = %5
  call void @init_simd()
  br label %15

15:                                               ; preds = %14, %5
  %16 = call align 4 ptr @llvm.threadlocal.address.p0(ptr align 4 @simd_support)
  %17 = load i32, ptr %16, align 4, !tbaa !3
  %18 = and i32 %17, 128
  %19 = icmp ne i32 %18, 0
  br i1 %19, label %20, label %27

20:                                               ; preds = %15
  %21 = load ptr, ptr %7, align 8, !tbaa !31
  %22 = getelementptr inbounds nuw %struct.jpeg_component_info, ptr %21, i32 0, i32 20
  %23 = load ptr, ptr %22, align 8, !tbaa !63
  %24 = load ptr, ptr %8, align 8, !tbaa !59
  %25 = load ptr, ptr %9, align 8, !tbaa !10
  %26 = load i32, ptr %10, align 4, !tbaa !3
  call void @jsimd_idct_islow_avx2(ptr noundef %23, ptr noundef %24, ptr noundef %25, i32 noundef %26)
  br label %34

27:                                               ; preds = %15
  %28 = load ptr, ptr %7, align 8, !tbaa !31
  %29 = getelementptr inbounds nuw %struct.jpeg_component_info, ptr %28, i32 0, i32 20
  %30 = load ptr, ptr %29, align 8, !tbaa !63
  %31 = load ptr, ptr %8, align 8, !tbaa !59
  %32 = load ptr, ptr %9, align 8, !tbaa !10
  %33 = load i32, ptr %10, align 4, !tbaa !3
  call void @jsimd_idct_islow_sse2(ptr noundef %30, ptr noundef %31, ptr noundef %32, i32 noundef %33)
  br label %34

34:                                               ; preds = %27, %20
  ret void
}