; Function Attrs: nounwind uwtable
define void @jsimd_idct_islow(ptr noundef readnone captures(none) %0, ptr noundef readonly captures(none) %1, ptr noundef %2, ptr noundef %3, i32 noundef %4) local_unnamed_addr #0 {
  %6 = tail call align 4 ptr @llvm.threadlocal.address.p0(ptr align 4 @simd_support)
  %7 = load i32, ptr %6, align 4, !tbaa !3
  %8 = icmp eq i32 %7, -1
  br i1 %8, label %9, label %10

9:                                                ; preds = %5
  tail call fastcc void @init_simd()
  %.pre = load i32, ptr %6, align 4, !tbaa !3
  br label %10

10:                                               ; preds = %9, %5
  %11 = phi i32 [ %.pre, %9 ], [ %7, %5 ]
  %12 = and i32 %11, 128
  %.not = icmp eq i32 %12, 0
  %13 = getelementptr inbounds nuw i8, ptr %1, i64 88
  %14 = load ptr, ptr %13, align 8, !tbaa !52
  br i1 %.not, label %16, label %15

15:                                               ; preds = %10
  tail call void @jsimd_idct_islow_avx2(ptr noundef %14, ptr noundef %2, ptr noundef %3, i32 noundef %4) #8
  br label %17

16:                                               ; preds = %10
  tail call void @jsimd_idct_islow_sse2(ptr noundef %14, ptr noundef %2, ptr noundef %3, i32 noundef %4) #8
  br label %17

17:                                               ; preds = %16, %15
  ret void
}